; Function Attrs: mustprogress uwtable
define hidden void @_ZN7datalog7context9bind_varsEP4exprb(ptr noalias sret(%class.obj_ref) align 8 %agg.result, ptr noundef nonnull align 8 dereferenceable(3556) %this, ptr noundef %fml, i1 noundef zeroext %is_forall) local_unnamed_addr #3 align 2 {
entry:
  %m_enable_bind_variables = getelementptr inbounds i8, ptr %this, i64 3514
  %0 = load i8, ptr %m_enable_bind_variables, align 2
  %1 = and i8 %0, 1
  %tobool.not = icmp eq i8 %1, 0
  br i1 %tobool.not, label %if.else, label %if.then

if.then:                                          ; preds = %entry
  %m_bind_variables = getelementptr inbounds i8, ptr %this, i64 2672
  tail call void @_ZN14bind_variablesclEP4exprb(ptr sret(%class.obj_ref) align 8 %agg.result, ptr noundef nonnull align 8 dereferenceable(120) %m_bind_variables, ptr noundef %fml, i1 noundef zeroext %is_forall)
  br label %return

if.else:                                          ; preds = %entry
  %2 = load ptr, ptr %this, align 8
  store ptr %fml, ptr %agg.result, align 8
  %m_manager.i = getelementptr inbounds i8, ptr %agg.result, i64 8
  store ptr %2, ptr %m_manager.i, align 8
  %tobool.not.i.i = icmp eq ptr %fml, null
  br i1 %tobool.not.i.i, label %return, label %_ZN11ast_manager7inc_refEP3ast.exit.i.i

_ZN11ast_manager7inc_refEP3ast.exit.i.i:          ; preds = %if.else
  %m_ref_count.i.i.i.i = getelementptr inbounds i8, ptr %fml, i64 8
  %3 = load i32, ptr %m_ref_count.i.i.i.i, align 4
  %inc.i.i.i.i = add i32 %3, 1
  store i32 %inc.i.i.i.i, ptr %m_ref_count.i.i.i.i, align 4
  br label %return

return:                                           ; preds = %_ZN11ast_manager7inc_refEP3ast.exit.i.i, %if.else, %if.then
  ret void
}